target datalayout = "e-m:e-p270:32:32-p271:32:32-p272:64:64-i64:64-i128:128-f80:128-n8:16:32:64-S128"
target triple = "x86_64-pc-linux-gnu"

%struct._lv_global_t = type { i8, i8, %struct.lv_ll_t, ptr, ptr, %struct.lv_ll_t, i8, i32, i32, ptr, %struct.lv_ll_t, ptr, %struct.lv_ll_t, ptr, ptr, i32, ptr, i8, i32, i32, ptr, i32, %struct.lv_timer_state_t, %struct.lv_anim_state_t, %struct.lv_tick_state_t, %struct._lv_draw_buf_handlers_t, %struct._lv_draw_buf_handlers_t, %struct._lv_draw_buf_handlers_t, %struct.lv_ll_t, ptr, ptr, %struct.lv_draw_global_info_t, [4 x %struct.lv_draw_sw_mask_radius_circle_dsc_t], ptr, ptr, ptr, %struct.lv_tlsf_state_t, %struct.lv_ll_t, ptr, ptr, %struct.lv_style_t, i64, ptr, i32, ptr }
%struct.lv_timer_state_t = type { %struct.lv_ll_t, i8, i8, i8, i8, i32, i8, i32, i32, i32, i32, ptr, ptr }
%struct.lv_anim_state_t = type { i8, i8, ptr, %struct.lv_ll_t }
%struct.lv_tick_state_t = type { i32, i8, ptr, ptr }
%struct._lv_draw_buf_handlers_t = type { ptr, ptr, ptr, ptr, ptr, ptr }
%struct.lv_draw_global_info_t = type { ptr, i32, i32, i32, i32, i8 }
%struct.lv_draw_sw_mask_radius_circle_dsc_t = type { ptr, ptr, ptr, ptr, i32, i32, i32 }
%struct.lv_tlsf_state_t = type { ptr, i64, i64, %struct.lv_ll_t }
%struct.lv_ll_t = type { i32, ptr, ptr }
%struct.lv_style_t = type { ptr, i32, i8 }
%struct._lv_indev_t = type { i32, ptr, i32, i32, i32, i8, i32, i32, ptr, ptr, ptr, ptr, i8, i8, i8, i8, i16, i16, i32, %struct.anon, %struct.anon.0, ptr, ptr, ptr, %struct.lv_event_list_t, ptr, i32, ptr }
%struct.anon = type { %struct.lv_point_t, %struct.lv_point_t, %struct.lv_point_t, %struct.lv_point_t, %struct.lv_point_t, %struct.lv_point_t, %struct.lv_point_t, ptr, ptr, ptr, ptr, ptr, %struct.lv_area_t, %struct.lv_point_t, i32, i8, %struct.lv_point_t, i32, i16 }
%struct.lv_area_t = type { i32, i32, i32, i32 }
%struct.lv_point_t = type { i32, i32 }
%struct.anon.0 = type { i32, i32 }
%struct.lv_event_list_t = type { %struct._lv_array_t, i8 }
%struct._lv_array_t = type { ptr, i32, i32, i32, i8 }
%struct._lv_event_t = type { ptr, ptr, i32, ptr, ptr, ptr, i8 }

@lv_global = external global %struct._lv_global_t, align 8

; Function Attrs: inlinehint nounwind uwtable
define internal void @lv_memzero(ptr noundef %0, i64 noundef %1) #3 {
  %3 = alloca ptr, align 8
  %4 = alloca i64, align 8
  store ptr %0, ptr %3, align 8, !tbaa !35
  store i64 %1, ptr %4, align 8, !tbaa !36
  %5 = load ptr, ptr %3, align 8, !tbaa !35
  %6 = load i64, ptr %4, align 8, !tbaa !36
  call void @lv_memset(ptr noundef %5, i8 noundef zeroext 0, i64 noundef %6)
  ret void
}

; Function Attrs: nounwind uwtable
define internal zeroext i1 @indev_stop_processing_check(ptr noundef %0) #0 {
  %2 = alloca ptr, align 8
  store ptr %0, ptr %2, align 8, !tbaa !8
  %3 = load ptr, ptr %2, align 8, !tbaa !8
  %4 = getelementptr inbounds nuw %struct._lv_indev_t, ptr %3, i32 0, i32 5
  %5 = load i8, ptr %4, align 4
  %6 = lshr i8 %5, 4
  %7 = and i8 %6, 1
  %8 = icmp ne i8 %7, 0
  ret i1 %8
}

; Function Attrs: nounwind uwtable
define internal zeroext i1 @indev_reset_check(ptr noundef %0) #0 {
  %2 = alloca ptr, align 8
  store ptr %0, ptr %2, align 8, !tbaa !8
  %3 = load ptr, ptr %2, align 8, !tbaa !8
  %4 = getelementptr inbounds nuw %struct._lv_indev_t, ptr %3, i32 0, i32 5
  %5 = load i8, ptr %4, align 4
  %6 = lshr i8 %5, 1
  %7 = and i8 %6, 1
  %8 = icmp ne i8 %7, 0
  br i1 %8, label %9, label %10

9:                                                ; preds = %1
  store ptr null, ptr getelementptr inbounds nuw (%struct._lv_global_t, ptr @lv_global, i32 0, i32 14), align 8, !tbaa !76
  br label %10

10:                                               ; preds = %9, %1
  %11 = load ptr, ptr %2, align 8, !tbaa !8
  %12 = getelementptr inbounds nuw %struct._lv_indev_t, ptr %11, i32 0, i32 5
  %13 = load i8, ptr %12, align 4
  %14 = lshr i8 %13, 1
  %15 = and i8 %14, 1
  %16 = icmp ne i8 %15, 0
  ret i1 %16
}

; Function Attrs: nounwind uwtable
define i32 @lv_indev_send_event(ptr noundef %0, i32 noundef %1, ptr noundef %2) #0 {
  %4 = alloca i32, align 4
  %5 = alloca ptr, align 8
  %6 = alloca i32, align 4
  %7 = alloca ptr, align 8
  %8 = alloca %struct._lv_event_t, align 8
  %9 = alloca i32, align 4
  %10 = alloca i32, align 4
  store ptr %0, ptr %5, align 8, !tbaa !8
  store i32 %1, ptr %6, align 4, !tbaa !41
  store ptr %2, ptr %7, align 8, !tbaa !35
  call void @llvm.lifetime.start.p0(i64 56, ptr %8) #6
  call void @lv_memzero(ptr noundef %8, i64 noundef 56)
  %11 = load i32, ptr %6, align 4, !tbaa !41
  %12 = getelementptr inbounds nuw %struct._lv_event_t, ptr %8, i32 0, i32 2
  store i32 %11, ptr %12, align 8, !tbaa !42
  %13 = load ptr, ptr %5, align 8, !tbaa !8
  %14 = getelementptr inbounds nuw %struct._lv_event_t, ptr %8, i32 0, i32 0
  store ptr %13, ptr %14, align 8, !tbaa !45
  %15 = load ptr, ptr %5, align 8, !tbaa !8
  %16 = getelementptr inbounds nuw %struct._lv_event_t, ptr %8, i32 0, i32 1
  store ptr %15, ptr %16, align 8, !tbaa !46
  %17 = load ptr, ptr %7, align 8, !tbaa !35
  %18 = getelementptr inbounds nuw %struct._lv_event_t, ptr %8, i32 0, i32 4
  store ptr %17, ptr %18, align 8, !tbaa !47
  call void @llvm.lifetime.start.p0(i64 4, ptr %9) #6
  %19 = load ptr, ptr %5, align 8, !tbaa !8
  %20 = getelementptr inbounds nuw %struct._lv_indev_t, ptr %19, i32 0, i32 24
  %21 = call i32 @lv_event_send(ptr noundef %20, ptr noundef %8, i1 noundef zeroext true)
  store i32 %21, ptr %9, align 4, !tbaa !41
  %22 = load i32, ptr %9, align 4, !tbaa !41
  %23 = icmp ne i32 %22, 1
  br i1 %23, label %24, label %26

24:                                               ; preds = %3
  %25 = load i32, ptr %9, align 4, !tbaa !41
  store i32 %25, ptr %4, align 4
  store i32 1, ptr %10, align 4
  br label %36

26:                                               ; preds = %3
  %27 = load ptr, ptr %5, align 8, !tbaa !8
  %28 = getelementptr inbounds nuw %struct._lv_indev_t, ptr %27, i32 0, i32 24
  %29 = call i32 @lv_event_send(ptr noundef %28, ptr noundef %8, i1 noundef zeroext false)
  store i32 %29, ptr %9, align 4, !tbaa !41
  %30 = load i32, ptr %9, align 4, !tbaa !41
  %31 = icmp ne i32 %30, 1
  br i1 %31, label %32, label %34

32:                                               ; preds = %26
  %33 = load i32, ptr %9, align 4, !tbaa !41
  store i32 %33, ptr %4, align 4
  store i32 1, ptr %10, align 4
  br label %36

34:                                               ; preds = %26
  %35 = load i32, ptr %9, align 4, !tbaa !41
  store i32 %35, ptr %4, align 4
  store i32 1, ptr %10, align 4
  br label %36

36:                                               ; preds = %34, %32, %24
  call void @llvm.lifetime.end.p0(i64 4, ptr %9) #6
  call void @llvm.lifetime.end.p0(i64 56, ptr %8) #6
  %37 = load i32, ptr %4, align 4
  ret i32 %37
}

; Function Attrs: nounwind uwtable
define internal i32 @send_event(i32 noundef %0, ptr noundef %1) #0 {
  %3 = alloca i32, align 4
  %4 = alloca i32, align 4
  %5 = alloca ptr, align 8
  %6 = alloca ptr, align 8
  %7 = alloca i32, align 4
  store i32 %0, ptr %4, align 4, !tbaa !41
  store ptr %1, ptr %5, align 8, !tbaa !35
  call void @llvm.lifetime.start.p0(i64 8, ptr %6) #6
  %8 = load ptr, ptr getelementptr inbounds nuw (%struct._lv_global_t, ptr @lv_global, i32 0, i32 13), align 8, !tbaa !48
  store ptr %8, ptr %6, align 8, !tbaa !8
  %9 = load i32, ptr %4, align 4, !tbaa !41
  %10 = icmp eq i32 %9, 1
  br i1 %10, label %29, label %11

11:                                               ; preds = %2
  %12 = load i32, ptr %4, align 4, !tbaa !41
  %13 = icmp eq i32 %12, 4
  br i1 %13, label %29, label %14

14:                                               ; preds = %11
  %15 = load i32, ptr %4, align 4, !tbaa !41
  %16 = icmp eq i32 %15, 10
  br i1 %16, label %29, label %17

17:                                               ; preds = %14
  %18 = load i32, ptr %4, align 4, !tbaa !41
  %19 = icmp eq i32 %18, 11
  br i1 %19, label %29, label %20

20:                                               ; preds = %17
  %21 = load i32, ptr %4, align 4, !tbaa !41
  %22 = icmp eq i32 %21, 8
  br i1 %22, label %29, label %23

23:                                               ; preds = %20
  %24 = load i32, ptr %4, align 4, !tbaa !41
  %25 = icmp eq i32 %24, 9
  br i1 %25, label %29, label %26

26:                                               ; preds = %23
  %27 = load i32, ptr %4, align 4, !tbaa !41
  %28 = icmp eq i32 %27, 18
  br i1 %28, label %29, label %47

29:                                               ; preds = %26, %23, %20, %17, %14, %11, %2
  %30 = load ptr, ptr %6, align 8, !tbaa !8
  %31 = load i32, ptr %4, align 4, !tbaa !41
  %32 = load ptr, ptr getelementptr inbounds nuw (%struct._lv_global_t, ptr @lv_global, i32 0, i32 14), align 8, !tbaa !76
  %33 = call i32 @lv_indev_send_event(ptr noundef %30, i32 noundef %31, ptr noundef %32)
  %34 = load ptr, ptr %6, align 8, !tbaa !8
  %35 = call zeroext i1 @indev_reset_check(ptr noundef %34)
  br i1 %35, label %36, label %37

36:                                               ; preds = %29
  store i32 0, ptr %3, align 4
  store i32 1, ptr %7, align 4
  br label %56

37:                                               ; preds = %29
  %38 = load ptr, ptr %6, align 8, !tbaa !8
  %39 = call zeroext i1 @indev_stop_processing_check(ptr noundef %38)
  br i1 %39, label %40, label %46

40:                                               ; preds = %37
  %41 = load ptr, ptr %6, align 8, !tbaa !8
  %42 = getelementptr inbounds nuw %struct._lv_indev_t, ptr %41, i32 0, i32 5
  %43 = load i8, ptr %42, align 4
  %44 = and i8 %43, -17
  %45 = or i8 %44, 0
  store i8 %45, ptr %42, align 4
  store i32 1, ptr %3, align 4
  store i32 1, ptr %7, align 4
  br label %56

46:                                               ; preds = %37
  br label %47

47:                                               ; preds = %46, %26
  %48 = load ptr, ptr getelementptr inbounds nuw (%struct._lv_global_t, ptr @lv_global, i32 0, i32 14), align 8, !tbaa !76
  %49 = load i32, ptr %4, align 4, !tbaa !41
  %50 = load ptr, ptr %5, align 8, !tbaa !35
  %51 = call i32 @lv_obj_send_event(ptr noundef %48, i32 noundef %49, ptr noundef %50)
  %52 = load ptr, ptr %6, align 8, !tbaa !8
  %53 = call zeroext i1 @indev_reset_check(ptr noundef %52)
  br i1 %53, label %54, label %55

54:                                               ; preds = %47
  store i32 0, ptr %3, align 4
  store i32 1, ptr %7, align 4
  br label %56

55:                                               ; preds = %47
  store i32 1, ptr %3, align 4
  store i32 1, ptr %7, align 4
  br label %56

56:                                               ; preds = %55, %54, %40, %36
  call void @llvm.lifetime.end.p0(i64 8, ptr %6) #6
  %57 = load i32, ptr %3, align 4
  ret i32 %57
}