; Function Attrs: nounwind uwtable
define internal fastcc range(i32 0, 2) i32 @send_event(i32 noundef range(i32 1, 40) %0, ptr noundef %1) unnamed_addr #0 {
  %3 = alloca %struct._lv_event_t, align 8
  %4 = load ptr, ptr getelementptr inbounds nuw (i8, ptr @lv_global, i64 152), align 8, !tbaa !40
  %5 = and i32 %0, 60
  %6 = icmp eq i32 %5, 8
  br i1 %6, label %7, label %switch.early.test

switch.early.test:                                ; preds = %2
  switch i32 %0, label %22 [
    i32 18, label %7
    i32 4, label %7
    i32 1, label %7
  ]

7:                                                ; preds = %switch.early.test, %switch.early.test, %switch.early.test, %2
  %8 = load ptr, ptr getelementptr inbounds nuw (i8, ptr @lv_global, i64 160), align 8, !tbaa !66
  call void @llvm.lifetime.start.p0(i64 56, ptr nonnull %3) #11
  call void @lv_memset(ptr noundef nonnull %3, i8 noundef zeroext 0, i64 noundef 56) #11
  %9 = getelementptr inbounds nuw i8, ptr %3, i64 16
  store i32 %0, ptr %9, align 8, !tbaa !34
  store ptr %4, ptr %3, align 8, !tbaa !37
  %10 = getelementptr inbounds nuw i8, ptr %3, i64 8
  store ptr %4, ptr %10, align 8, !tbaa !38
  %11 = getelementptr inbounds nuw i8, ptr %3, i64 32
  store ptr %8, ptr %11, align 8, !tbaa !39
  %12 = getelementptr inbounds nuw i8, ptr %4, i64 264
  %13 = call i32 @lv_event_send(ptr noundef nonnull %12, ptr noundef nonnull %3, i1 noundef zeroext true) #11
  %.not.i = icmp eq i32 %13, 1
  br i1 %.not.i, label %14, label %lv_indev_send_event.exit

14:                                               ; preds = %7
  %15 = call i32 @lv_event_send(ptr noundef nonnull %12, ptr noundef nonnull %3, i1 noundef zeroext false) #11
  br label %lv_indev_send_event.exit

lv_indev_send_event.exit:                         ; preds = %7, %14
  call void @llvm.lifetime.end.p0(i64 56, ptr nonnull %3) #11
  %16 = getelementptr inbounds nuw i8, ptr %4, i64 28
  %17 = load i8, ptr %16, align 4
  %18 = and i8 %17, 2
  %.not.i26 = icmp eq i8 %18, 0
  br i1 %.not.i26, label %indev_reset_check.exit.thread, label %indev_reset_check.exit

indev_reset_check.exit:                           ; preds = %lv_indev_send_event.exit
  store ptr null, ptr getelementptr inbounds nuw (i8, ptr @lv_global, i64 160), align 8, !tbaa !66
  %.pre.i = load i8, ptr %16, align 4
  %.pre2.i = and i8 %.pre.i, 2
  %.not = icmp eq i8 %.pre2.i, 0
  br i1 %.not, label %indev_reset_check.exit.thread, label %indev_reset_check.exit31.thread

indev_reset_check.exit.thread:                    ; preds = %lv_indev_send_event.exit, %indev_reset_check.exit
  %.val = phi i8 [ %17, %lv_indev_send_event.exit ], [ %.pre.i, %indev_reset_check.exit ]
  %19 = and i8 %.val, 16
  %.not35 = icmp eq i8 %19, 0
  br i1 %.not35, label %22, label %20

20:                                               ; preds = %indev_reset_check.exit.thread
  %21 = and i8 %.val, -17
  store i8 %21, ptr %16, align 4
  br label %indev_reset_check.exit31.thread

22:                                               ; preds = %switch.early.test, %indev_reset_check.exit.thread
  %23 = load ptr, ptr getelementptr inbounds nuw (i8, ptr @lv_global, i64 160), align 8, !tbaa !66
  %24 = call i32 @lv_obj_send_event(ptr noundef %23, i32 noundef %0, ptr noundef %1) #11
  %25 = getelementptr inbounds nuw i8, ptr %4, i64 28
  %26 = load i8, ptr %25, align 4
  %27 = and i8 %26, 2
  %.not.i27 = icmp eq i8 %27, 0
  br i1 %.not.i27, label %indev_reset_check.exit31.thread, label %indev_reset_check.exit31

indev_reset_check.exit31:                         ; preds = %22
  store ptr null, ptr getelementptr inbounds nuw (i8, ptr @lv_global, i64 160), align 8, !tbaa !66
  %.pre.i28 = load i8, ptr %25, align 4
  %.pre.i28.fr = freeze i8 %.pre.i28
  %.pre2.i29 = and i8 %.pre.i28.fr, 2
  %.not36 = icmp eq i8 %.pre2.i29, 0
  %spec.select = zext i1 %.not36 to i32
  br label %indev_reset_check.exit31.thread

indev_reset_check.exit31.thread:                  ; preds = %indev_reset_check.exit31, %22, %indev_reset_check.exit, %20
  %.0 = phi i32 [ 1, %20 ], [ 0, %indev_reset_check.exit ], [ 1, %22 ], [ %spec.select, %indev_reset_check.exit31 ]
  ret i32 %.0
}